; Function Attrs: mustprogress nofree norecurse nosync nounwind willreturn memory(argmem: read) uwtable
define noundef zeroext i1 @_ZNK6casadi8External16any_symbol_foundEv(ptr noundef nonnull readonly align 8 captures(none) dereferenceable(1520) %0) unnamed_addr #10 align 2 {
  %2 = getelementptr inbounds nuw i8, ptr %0, i64 1320
  %3 = load ptr, ptr %2, align 8, !tbaa !64
  %.not = icmp eq ptr %3, null
  %4 = getelementptr inbounds nuw i8, ptr %0, i64 1328
  %5 = load ptr, ptr %4, align 8
  %.not1 = icmp eq ptr %5, null
  %or.cond = select i1 %.not, i1 %.not1, i1 false
  %6 = getelementptr inbounds nuw i8, ptr %0, i64 1336
  %7 = load ptr, ptr %6, align 8
  %.not2 = icmp eq ptr %7, null
  %or.cond10 = select i1 %or.cond, i1 %.not2, i1 false
  %8 = getelementptr inbounds nuw i8, ptr %0, i64 1376
  %9 = load ptr, ptr %8, align 8
  %.not3 = icmp eq ptr %9, null
  %or.cond12 = select i1 %or.cond10, i1 %.not3, i1 false
  %10 = getelementptr inbounds nuw i8, ptr %0, i64 1344
  %11 = load ptr, ptr %10, align 8
  %.not4 = icmp eq ptr %11, null
  %or.cond14 = select i1 %or.cond12, i1 %.not4, i1 false
  %12 = getelementptr inbounds nuw i8, ptr %0, i64 1352
  %13 = load ptr, ptr %12, align 8
  %.not5 = icmp eq ptr %13, null
  %or.cond16 = select i1 %or.cond14, i1 %.not5, i1 false
  %14 = getelementptr inbounds nuw i8, ptr %0, i64 1360
  %15 = load ptr, ptr %14, align 8
  %.not6 = icmp eq ptr %15, null
  %or.cond18 = select i1 %or.cond16, i1 %.not6, i1 false
  %16 = getelementptr inbounds nuw i8, ptr %0, i64 1368
  %17 = load ptr, ptr %16, align 8
  %.not7 = icmp eq ptr %17, null
  %or.cond20 = select i1 %or.cond18, i1 %.not7, i1 false
  br i1 %or.cond20, label %18, label %22

18:                                               ; preds = %1
  %19 = getelementptr inbounds nuw i8, ptr %0, i64 1384
  %20 = load ptr, ptr %19, align 8, !tbaa !161
  %21 = icmp ne ptr %20, null
  br label %22

22:                                               ; preds = %18, %1
  %23 = phi i1 [ true, %1 ], [ %21, %18 ]
  ret i1 %23
}